(dp0
cnumpy.core.multiarray
scalar
p1
(cnumpy
dtype
p2
(S'S36'
p3
I0
I1
tp4
Rp5
(I3
S'|'
p6
NNNI36
I1
I0
tp7
bS'015e1823-63c9-4530-8f59-65b1aedc867c'
p8
tp9
Rp10
(dp11
cdatetime
date
p12
(S'\x07\xe0\x0c\x11'
p13
tp14
Rp15
(dp16
g1
(g2
(S'S36'
p17
I0
I1
tp18
Rp19
(I3
S'|'
p20
NNNI36
I1
I0
tp21
bS'HKQuantityTypeIdentifierDistanceWalk'
p22
tp23
Rp24
g1
(g2
(S'i4'
p25
I0
I1
tp26
Rp27
(I3
S'<'
p28
NNNI-1
I-1
I0
tp29
bS'\xfa\x07\x00\x00'
p30
tp31
Rp32
sg1
(g2
(S'S33'
p33
I0
I1
tp34
Rp35
(I3
S'|'
p36
NNNI33
I1
I0
tp37
bS'HKQuantityTypeIdentifierHeartRate'
p38
tp39
Rp40
g1
(g27
S'O\x00\x00\x00'
p41
tp42
Rp43
sg1
(g2
(S'S33'
p44
I0
I1
tp45
Rp46
(I3
S'|'
p47
NNNI33
I1
I0
tp48
bS'HKQuantityTypeIdentifierStepCount'
p49
tp50
Rp51
g1
(g27
S'3\x06\x00\x00'
p52
tp53
Rp54
sg1
(g2
(S'S36'
p55
I0
I1
tp56
Rp57
(I3
S'|'
p58
NNNI36
I1
I0
tp59
bS'HKQuantityTypeIdentifierActiveEnergy'
p60
tp61
Rp62
g1
(g27
S'X\xe9\x00\x00'
p63
tp64
Rp65
sssg1
(g2
(S'S36'
p66
I0
I1
tp67
Rp68
(I3
S'|'
p69
NNNI36
I1
I0
tp70
bS'0351aaf2-23dc-4875-98f9-ebf7591f8d18'
p71
tp72
Rp73
(dp74
g12
(S'\x07\xe1\x02\x0f'
p75
tp76
Rp77
(dp78
g1
(g2
(S'S36'
p79
I0
I1
tp80
Rp81
(I3
S'|'
p82
NNNI36
I1
I0
tp83
bS'HKQuantityTypeIdentifierFlightsClimb'
p84
tp85
Rp86
g1
(g27
S'\x02\x00\x00\x00'
p87
tp88
Rp89
sg1
(g2
(S'S36'
p90
I0
I1
tp91
Rp92
(I3
S'|'
p93
NNNI36
I1
I0
tp94
bS'HKQuantityTypeIdentifierDistanceWalk'
p95
tp96
Rp97
g1
(g27
S'h\x19\x00\x00'
p98
tp99
Rp100
sg1
(g2
(S'S32'
p101
I0
I1
tp102
Rp103
(I3
S'|'
p104
NNNI32
I1
I0
tp105
bS'HKQuantityTypeIdentifierBodyMass'
p106
tp107
Rp108
g1
(g27
S'O\x00\x00\x00'
p109
tp110
Rp111
sg1
(g2
(S'S33'
p112
I0
I1
tp113
Rp114
(I3
S'|'
p115
NNNI33
I1
I0
tp116
bS'HKQuantityTypeIdentifierHeartRate'
p117
tp118
Rp119
g1
(g27
S'i\x00\x00\x00'
p120
tp121
Rp122
sg1
(g2
(S'S30'
p123
I0
I1
tp124
Rp125
(I3
S'|'
p126
NNNI30
I1
I0
tp127
bS'HKQuantityTypeIdentifierHeight'
p128
tp129
Rp130
g1
(g27
S'\x01\x00\x00\x00'
p131
tp132
Rp133
sg1
(g2
(S'S36'
p134
I0
I1
tp135
Rp136
(I3
S'|'
p137
NNNI36
I1
I0
tp138
bS'HKQuantityTypeIdentifierActiveEnergy'
p139
tp140
Rp141
g1
(g27
S'\xd5\xdc\x05\x00'
p142
tp143
Rp144
sg1
(g2
(S'S33'
p145
I0
I1
tp146
Rp147
(I3
S'|'
p148
NNNI33
I1
I0
tp149
bS'HKQuantityTypeIdentifierStepCount'
p150
tp151
Rp152
g1
(g27
S'\xf3\x1e\x00\x00'
p153
tp154
Rp155
sssg1
(g2
(S'S36'
p156
I0
I1
tp157
Rp158
(I3
S'|'
p159
NNNI36
I1
I0
tp160
bS'03a18280-97cc-4ef3-93b8-5eb43bd3c0d2'
p161
tp162
Rp163
(dp164
g12
(S'\x07\xe0\x0b\x1a'
p165
tp166
Rp167
(dp168
g1
(g2
(S'S36'
p169
I0
I1
tp170
Rp171
(I3
S'|'
p172
NNNI36
I1
I0
tp173
bS'HKQuantityTypeIdentifierFlightsClimb'
p174
tp175
Rp176
g1
(g27
S'\x08\x00\x00\x00'
p177
tp178
Rp179
sg1
(g2
(S'S36'
p180
I0
I1
tp181
Rp182
(I3
S'|'
p183
NNNI36
I1
I0
tp184
bS'HKQuantityTypeIdentifierActiveEnergy'
p185
tp186
Rp187
g1
(g27
S'\x15\xa3\x04\x00'
p188
tp189
Rp190
sg1
(g2
(S'S33'
p191
I0
I1
tp192
Rp193
(I3
S'|'
p194
NNNI33
I1
I0
tp195
bS'HKQuantityTypeIdentifierStepCount'
p196
tp197
Rp198
g1
(g27
S'\x88\xba\x00\x00'
p199
tp200
Rp201
sg1
(g2
(S'S36'
p202
I0
I1
tp203
Rp204
(I3
S'|'
p205
NNNI36
I1
I0
tp206
bS'HKQuantityTypeIdentifierDistanceWalk'
p207
tp208
Rp209
g1
(g27
S'\xf0\x85\x00\x00'
p210
tp211
Rp212
ssg12
(S'\x07\xe0\x0b\x1d'
p213
tp214
Rp215
(dp216
g1
(g2
(S'S36'
p217
I0
I1
tp218
Rp219
(I3
S'|'
p220
NNNI36
I1
I0
tp221
bS'HKQuantityTypeIdentifierFlightsClimb'
p222
tp223
Rp224
g1
(g27
S'\x03\x00\x00\x00'
p225
tp226
Rp227
sg1
(g2
(S'S36'
p228
I0
I1
tp229
Rp230
(I3
S'|'
p231
NNNI36
I1
I0
tp232
bS'HKQuantityTypeIdentifierActiveEnergy'
p233
tp234
Rp235
g1
(g27
S"'\xdf\x01\x00"
p236
tp237
Rp238
sg1
(g2
(S'S33'
p239
I0
I1
tp240
Rp241
(I3
S'|'
p242
NNNI33
I1
I0
tp243
bS'HKQuantityTypeIdentifierStepCount'
p244
tp245
Rp246
g1
(g27
S'\xfe;\x00\x00'
p247
tp248
Rp249
sg1
(g2
(S'S36'
p250
I0
I1
tp251
Rp252
(I3
S'|'
p253
NNNI36
I1
I0
tp254
bS'HKQuantityTypeIdentifierDistanceWalk'
p255
tp256
Rp257
g1
(g27
S'$+\x00\x00'
p258
tp259
Rp260
ssg12
(S'\x07\xe0\x0b\x1b'
p261
tp262
Rp263
(dp264
g1
(g2
(S'S36'
p265
I0
I1
tp266
Rp267
(I3
S'|'
p268
NNNI36
I1
I0
tp269
bS'HKQuantityTypeIdentifierFlightsClimb'
p270
tp271
Rp272
g1
(g27
S'\x02\x00\x00\x00'
p273
tp274
Rp275
sg1
(g2
(S'S36'
p276
I0
I1
tp277
Rp278
(I3
S'|'
p279
NNNI36
I1
I0
tp280
bS'HKQuantityTypeIdentifierActiveEnergy'
p281
tp282
Rp283
g1
(g27
S'\x0e\x82\x00\x00'
p284
tp285
Rp286
sg1
(g2
(S'S33'
p287
I0
I1
tp288
Rp289
(I3
S'|'
p290
NNNI33
I1
I0
tp291
bS'HKQuantityTypeIdentifierStepCount'
p292
tp293
Rp294
g1
(g27
S'D\x0f\x00\x00'
p295
tp296
Rp297
sg1
(g2
(S'S36'
p298
I0
I1
tp299
Rp300
(I3
S'|'
p301
NNNI36
I1
I0
tp302
bS'HKQuantityTypeIdentifierDistanceWalk'
p303
tp304
Rp305
g1
(g27
S'\x12\x0b\x00\x00'
p306
tp307
Rp308
ssg12
(S'\x07\xe0\x0b\x1e'
p309
tp310
Rp311
(dp312
g1
(g2
(S'S36'
p313
I0
I1
tp314
Rp315
(I3
S'|'
p316
NNNI36
I1
I0
tp317
bS'HKQuantityTypeIdentifierFlightsClimb'
p318
tp319
Rp320
g1
(g27
S'\x07\x00\x00\x00'
p321
tp322
Rp323
sg1
(g2
(S'S36'
p324
I0
I1
tp325
Rp326
(I3
S'|'
p327
NNNI36
I1
I0
tp328
bS'HKQuantityTypeIdentifierActiveEnergy'
p329
tp330
Rp331
g1
(g27
S'K<\x01\x00'
p332
tp333
Rp334
sg1
(g2
(S'S33'
p335
I0
I1
tp336
Rp337
(I3
S'|'
p338
NNNI33
I1
I0
tp339
bS'HKQuantityTypeIdentifierStepCount'
p340
tp341
Rp342
g1
(g27
S'f,\x00\x00'
p343
tp344
Rp345
sg1
(g2
(S'S36'
p346
I0
I1
tp347
Rp348
(I3
S'|'
p349
NNNI36
I1
I0
tp350
bS'HKQuantityTypeIdentifierDistanceWalk'
p351
tp352
Rp353
g1
(g27
S'\x9c \x00\x00'
p354
tp355
Rp356
ssg12
(S'\x07\xe0\x0b\x1c'
p357
tp358
Rp359
(dp360
g1
(g2
(S'S36'
p361
I0
I1
tp362
Rp363
(I3
S'|'
p364
NNNI36
I1
I0
tp365
bS'HKQuantityTypeIdentifierFlightsClimb'
p366
tp367
Rp368
g1
(g27
S'\x04\x00\x00\x00'
p369
tp370
Rp371
sg1
(g2
(S'S36'
p372
I0
I1
tp373
Rp374
(I3
S'|'
p375
NNNI36
I1
I0
tp376
bS'HKQuantityTypeIdentifierActiveEnergy'
p377
tp378
Rp379
g1
(g27
S'\xee,\x02\x00'
p380
tp381
Rp382
sg1
(g2
(S'S33'
p383
I0
I1
tp384
Rp385
(I3
S'|'
p386
NNNI33
I1
I0
tp387
bS'HKQuantityTypeIdentifierStepCount'
p388
tp389
Rp390
g1
(g27
S'\xa4M\x00\x00'
p391
tp392
Rp393
sg1
(g2
(S'S36'
p394
I0
I1
tp395
Rp396
(I3
S'|'
p397
NNNI36
I1
I0
tp398
bS'HKQuantityTypeIdentifierDistanceWalk'
p399
tp400
Rp401
g1
(g27
S'N8\x00\x00'
p402
tp403
Rp404
sssg1
(g2
(S'S36'
p405
I0
I1
tp406
Rp407
(I3
S'|'
p408
NNNI36
I1
I0
tp409
bS'023d1be7-df3f-423a-b70c-60f729515267'
p410
tp411
Rp412
(dp413
g12
(S'\x07\xe0\x0c\x0e'
p414
tp415
Rp416
(dp417
g1
(g2
(S'S36'
p418
I0
I1
tp419
Rp420
(I3
S'|'
p421
NNNI36
I1
I0
tp422
bS'HKQuantityTypeIdentifierFlightsClimb'
p423
tp424
Rp425
g1
(g27
S'\x07\x00\x00\x00'
p426
tp427
Rp428
sg1
(g2
(S'S36'
p429
I0
I1
tp430
Rp431
(I3
S'|'
p432
NNNI36
I1
I0
tp433
bS'HKQuantityTypeIdentifierDistanceWalk'
p434
tp435
Rp436
g1
(g27
S'59\x00\x00'
p437
tp438
Rp439
sg1
(g2
(S'S32'
p440
I0
I1
tp441
Rp442
(I3
S'|'
p443
NNNI32
I1
I0
tp444
bS'HKQuantityTypeIdentifierBodyMass'
p445
tp446
Rp447
g1
(g27
S'O\x01\x00\x00'
p448
tp449
Rp450
sg1
(g2
(S'S33'
p451
I0
I1
tp452
Rp453
(I3
S'|'
p454
NNNI33
I1
I0
tp455
bS'HKQuantityTypeIdentifierHeartRate'
p456
tp457
Rp458
g1
(g27
S'\xc6\x00\x00\x00'
p459
tp460
Rp461
sg1
(g2
(S'S30'
p462
I0
I1
tp463
Rp464
(I3
S'|'
p465
NNNI30
I1
I0
tp466
bS'HKQuantityTypeIdentifierHeight'
p467
tp468
Rp469
g1
(g27
S'\x07\x00\x00\x00'
p470
tp471
Rp472
sg1
(g2
(S'S36'
p473
I0
I1
tp474
Rp475
(I3
S'|'
p476
NNNI36
I1
I0
tp477
bS'HKQuantityTypeIdentifierActiveEnergy'
p478
tp479
Rp480
g1
(g27
S'~\xe2\x03\x00'
p481
tp482
Rp483
sg1
(g2
(S'S33'
p484
I0
I1
tp485
Rp486
(I3
S'|'
p487
NNNI33
I1
I0
tp488
bS'HKQuantityTypeIdentifierStepCount'
p489
tp490
Rp491
g1
(g27
S'\xafX\x00\x00'
p492
tp493
Rp494
sssg1
(g2
(S'S36'
p495
I0
I1
tp496
Rp497
(I3
S'|'
p498
NNNI36
I1
I0
tp499
bS'011f0909-eeb8-418d-91a9-0e85d391debb'
p500
tp501
Rp502
(dp503
g12
(S'\x07\xe0\x0c\x17'
p504
tp505
Rp506
(dp507
g1
(g2
(S'S36'
p508
I0
I1
tp509
Rp510
(I3
S'|'
p511
NNNI36
I1
I0
tp512
bS'HKQuantityTypeIdentifierFlightsClimb'
p513
tp514
Rp515
g1
(g27
S'\x02\x00\x00\x00'
p516
tp517
Rp518
sg1
(g2
(S'S33'
p519
I0
I1
tp520
Rp521
(I3
S'|'
p522
NNNI33
I1
I0
tp523
bS'HKQuantityTypeIdentifierStepCount'
p524
tp525
Rp526
g1
(g27
S'\t\x04\x00\x00'
p527
tp528
Rp529
sg1
(g2
(S'S36'
p530
I0
I1
tp531
Rp532
(I3
S'|'
p533
NNNI36
I1
I0
tp534
bS'HKQuantityTypeIdentifierDistanceWalk'
p535
tp536
Rp537
g1
(g27
S'\x9c\x00\x00\x00'
p538
tp539
Rp540
ssg12
(S'\x07\xe0\x0c\x16'
p541
tp542
Rp543
(dp544
g1
(g2
(S'S36'
p545
I0
I1
tp546
Rp547
(I3
S'|'
p548
NNNI36
I1
I0
tp549
bS'HKQuantityTypeIdentifierFlightsClimb'
p550
tp551
Rp552
g1
(g27
S'\x07\x00\x00\x00'
p553
tp554
Rp555
sg1
(g2
(S'S33'
p556
I0
I1
tp557
Rp558
(I3
S'|'
p559
NNNI33
I1
I0
tp560
bS'HKQuantityTypeIdentifierStepCount'
p561
tp562
Rp563
g1
(g27
S'#(\x00\x00'
p564
tp565
Rp566
sg1
(g2
(S'S36'
p567
I0
I1
tp568
Rp569
(I3
S'|'
p570
NNNI36
I1
I0
tp571
bS'HKQuantityTypeIdentifierDistanceWalk'
p572
tp573
Rp574
g1
(g27
S'\x05\x18\x00\x00'
p575
tp576
Rp577
sssg1
(g2
(S'S36'
p578
I0
I1
tp579
Rp580
(I3
S'|'
p581
NNNI36
I1
I0
tp582
bS'00a148c2-a28c-4db5-9e48-31354c74ca20'
p583
tp584
Rp585
(dp586
g12
(S'\x07\xe1\x01\t'
p587
tp588
Rp589
(dp590
g1
(g2
(S'S36'
p591
I0
I1
tp592
Rp593
(I3
S'|'
p594
NNNI36
I1
I0
tp595
bS'HKQuantityTypeIdentifierFlightsClimb'
p596
tp597
Rp598
g1
(g27
S'\x02\x00\x00\x00'
p599
tp600
Rp601
sg1
(g2
(S'S36'
p602
I0
I1
tp603
Rp604
(I3
S'|'
p605
NNNI36
I1
I0
tp606
bS'HKQuantityTypeIdentifierDistanceWalk'
p607
tp608
Rp609
g1
(g27
S'\xbb\n\x00\x00'
p610
tp611
Rp612
sg1
(g2
(S'S33'
p613
I0
I1
tp614
Rp615
(I3
S'|'
p616
NNNI33
I1
I0
tp617
bS'HKQuantityTypeIdentifierHeartRate'
p618
tp619
Rp620
g1
(g27
S'\x81\x00\x00\x00'
p621
tp622
Rp623
sg1
(g2
(S'S33'
p624
I0
I1
tp625
Rp626
(I3
S'|'
p627
NNNI33
I1
I0
tp628
bS'HKQuantityTypeIdentifierStepCount'
p629
tp630
Rp631
g1
(g27
S'|)\x00\x00'
p632
tp633
Rp634
sg1
(g2
(S'S36'
p635
I0
I1
tp636
Rp637
(I3
S'|'
p638
NNNI36
I1
I0
tp639
bS'HKQuantityTypeIdentifierActiveEnergy'
p640
tp641
Rp642
g1
(g27
S'\x97\xbb\x02\x00'
p643
tp644
Rp645
sssg1
(g2
(S'S36'
p646
I0
I1
tp647
Rp648
(I3
S'|'
p649
NNNI36
I1
I0
tp650
bS'02f9c5d6-2702-4b6b-932b-8ac92e0b1421'
p651
tp652
Rp653
(dp654
g12
(S'\x07\xe1\x01\x17'
p655
tp656
Rp657
(dp658
g1
(g2
(S'S36'
p659
I0
I1
tp660
Rp661
(I3
S'|'
p662
NNNI36
I1
I0
tp663
bS'HKQuantityTypeIdentifierFlightsClimb'
p664
tp665
Rp666
g1
(g27
S'\x04\x00\x00\x00'
p667
tp668
Rp669
sg1
(g2
(S'S32'
p670
I0
I1
tp671
Rp672
(I3
S'|'
p673
NNNI32
I1
I0
tp674
bS'HKQuantityTypeIdentifierBodyMass'
p675
tp676
Rp677
g1
(g27
S'7\x00\x00\x00'
p678
tp679
Rp680
sg1
(g2
(S'S33'
p681
I0
I1
tp682
Rp683
(I3
S'|'
p684
NNNI33
I1
I0
tp685
bS'HKQuantityTypeIdentifierStepCount'
p686
tp687
Rp688
g1
(g27
S'\xbd$\x00\x00'
p689
tp690
Rp691
sg1
(g2
(S'S30'
p692
I0
I1
tp693
Rp694
(I3
S'|'
p695
NNNI30
I1
I0
tp696
bS'HKQuantityTypeIdentifierHeight'
p697
tp698
Rp699
g1
(g27
S'\x01\x00\x00\x00'
p700
tp701
Rp702
sg1
(g2
(S'S36'
p703
I0
I1
tp704
Rp705
(I3
S'|'
p706
NNNI36
I1
I0
tp707
bS'HKQuantityTypeIdentifierDistanceWalk'
p708
tp709
Rp710
g1
(g27
S'\x1c\x17\x00\x00'
p711
tp712
Rp713
sssg1
(g2
(S'S36'
p714
I0
I1
tp715
Rp716
(I3
S'|'
p717
NNNI36
I1
I0
tp718
bS'02c1c6aa-eb54-48a0-aa8b-db7aa0319a12'
p719
tp720
Rp721
(dp722
g12
(S'\x07\xe0\x01\x11'
p723
tp724
Rp725
(dp726
g1
(g2
(S'S36'
p727
I0
I1
tp728
Rp729
(I3
S'|'
p730
NNNI36
I1
I0
tp731
bS'HKQuantityTypeIdentifierActiveEnergy'
p732
tp733
Rp734
g1
(g27
S'\x00\x00\x00\x00'
p735
tp736
Rp737
sg1
(g2
(S'S33'
p738
I0
I1
tp739
Rp740
(I3
S'|'
p741
NNNI33
I1
I0
tp742
bS'HKQuantityTypeIdentifierStepCount'
p743
tp744
Rp745
g1
(g27
S'\xa9\x14\x00\x00'
p746
tp747
Rp748
sg1
(g2
(S'S36'
p749
I0
I1
tp750
Rp751
(I3
S'|'
p752
NNNI36
I1
I0
tp753
bS'HKQuantityTypeIdentifierDistanceWalk'
p754
tp755
Rp756
g1
(g27
S'c\x10\x00\x00'
p757
tp758
Rp759
ssg12
(S'\x07\xe0\x01\x16'
p760
tp761
Rp762
(dp763
g1
(g2
(S'S36'
p764
I0
I1
tp765
Rp766
(I3
S'|'
p767
NNNI36
I1
I0
tp768
bS'HKQuantityTypeIdentifierFlightsClimb'
p769
tp770
Rp771
g1
(g27
S'\x03\x00\x00\x00'
p772
tp773
Rp774
sg1
(g2
(S'S36'
p775
I0
I1
tp776
Rp777
(I3
S'|'
p778
NNNI36
I1
I0
tp779
bS'HKQuantityTypeIdentifierActiveEnergy'
p780
tp781
Rp782
g1
(g27
S'\x00\x00\x00\x00'
p783
tp784
Rp785
sg1
(g2
(S'S33'
p786
I0
I1
tp787
Rp788
(I3
S'|'
p789
NNNI33
I1
I0
tp790
bS'HKQuantityTypeIdentifierStepCount'
p791
tp792
Rp793
g1
(g27
S'\x86\x14\x00\x00'
p794
tp795
Rp796
sg1
(g2
(S'S36'
p797
I0
I1
tp798
Rp799
(I3
S'|'
p800
NNNI36
I1
I0
tp801
bS'HKQuantityTypeIdentifierDistanceWalk'
p802
tp803
Rp804
g1
(g27
S'x\x10\x00\x00'
p805
tp806
Rp807
ssg12
(S'\x07\xe0\x01\x14'
p808
tp809
Rp810
(dp811
g1
(g2
(S'S36'
p812
I0
I1
tp813
Rp814
(I3
S'|'
p815
NNNI36
I1
I0
tp816
bS'HKQuantityTypeIdentifierFlightsClimb'
p817
tp818
Rp819
g1
(g27
S'\x02\x00\x00\x00'
p820
tp821
Rp822
sg1
(g2
(S'S36'
p823
I0
I1
tp824
Rp825
(I3
S'|'
p826
NNNI36
I1
I0
tp827
bS'HKQuantityTypeIdentifierActiveEnergy'
p828
tp829
Rp830
g1
(g27
S'\x00\x00\x00\x00'
p831
tp832
Rp833
sg1
(g2
(S'S33'
p834
I0
I1
tp835
Rp836
(I3
S'|'
p837
NNNI33
I1
I0
tp838
bS'HKQuantityTypeIdentifierStepCount'
p839
tp840
Rp841
g1
(g27
S'\xd4\x07\x00\x00'
p842
tp843
Rp844
sg1
(g2
(S'S36'
p845
I0
I1
tp846
Rp847
(I3
S'|'
p848
NNNI36
I1
I0
tp849
bS'HKQuantityTypeIdentifierDistanceWalk'
p850
tp851
Rp852
g1
(g27
S'\xd4\x05\x00\x00'
p853
tp854
Rp855
ssg12
(S'\x07\xe0\x01\x15'
p856
tp857
Rp858
(dp859
g1
(g2
(S'S36'
p860
I0
I1
tp861
Rp862
(I3
S'|'
p863
NNNI36
I1
I0
tp864
bS'HKQuantityTypeIdentifierActiveEnergy'
p865
tp866
Rp867
g1
(g27
S'\x00\x00\x00\x00'
p868
tp869
Rp870
sg1
(g2
(S'S33'
p871
I0
I1
tp872
Rp873
(I3
S'|'
p874
NNNI33
I1
I0
tp875
bS'HKQuantityTypeIdentifierStepCount'
p876
tp877
Rp878
g1
(g27
S'v\n\x00\x00'
p879
tp880
Rp881
sg1
(g2
(S'S36'
p882
I0
I1
tp883
Rp884
(I3
S'|'
p885
NNNI36
I1
I0
tp886
bS'HKQuantityTypeIdentifierDistanceWalk'
p887
tp888
Rp889
g1
(g27
S'\x9f\x07\x00\x00'
p890
tp891
Rp892
ssg12
(S'\x07\xe0\x01\x12'
p893
tp894
Rp895
(dp896
g1
(g2
(S'S36'
p897
I0
I1
tp898
Rp899
(I3
S'|'
p900
NNNI36
I1
I0
tp901
bS'HKQuantityTypeIdentifierFlightsClimb'
p902
tp903
Rp904
g1
(g27
S'8\x00\x00\x00'
p905
tp906
Rp907
sg1
(g2
(S'S36'
p908
I0
I1
tp909
Rp910
(I3
S'|'
p911
NNNI36
I1
I0
tp912
bS'HKQuantityTypeIdentifierActiveEnergy'
p913
tp914
Rp915
g1
(g27
S'\x00\x00\x00\x00'
p916
tp917
Rp918
sg1
(g2
(S'S33'
p919
I0
I1
tp920
Rp921
(I3
S'|'
p922
NNNI33
I1
I0
tp923
bS'HKQuantityTypeIdentifierStepCount'
p924
tp925
Rp926
g1
(g27
S'\x928\x00\x00'
p927
tp928
Rp929
sg1
(g2
(S'S36'
p930
I0
I1
tp931
Rp932
(I3
S'|'
p933
NNNI36
I1
I0
tp934
bS'HKQuantityTypeIdentifierDistanceWalk'
p935
tp936
Rp937
g1
(g27
S'\x9c(\x00\x00'
p938
tp939
Rp940
ssg12
(S'\x07\xe0\x01\x13'
p941
tp942
Rp943
(dp944
g1
(g2
(S'S36'
p945
I0
I1
tp946
Rp947
(I3
S'|'
p948
NNNI36
I1
I0
tp949
bS'HKQuantityTypeIdentifierFlightsClimb'
p950
tp951
Rp952
g1
(g27
S'\x01\x00\x00\x00'
p953
tp954
Rp955
sg1
(g2
(S'S36'
p956
I0
I1
tp957
Rp958
(I3
S'|'
p959
NNNI36
I1
I0
tp960
bS'HKQuantityTypeIdentifierActiveEnergy'
p961
tp962
Rp963
g1
(g27
S'\x00\x00\x00\x00'
p964
tp965
Rp966
sg1
(g2
(S'S33'
p967
I0
I1
tp968
Rp969
(I3
S'|'
p970
NNNI33
I1
I0
tp971
bS'HKQuantityTypeIdentifierStepCount'
p972
tp973
Rp974
g1
(g27
S'\xf2\x16\x00\x00'
p975
tp976
Rp977
sg1
(g2
(S'S36'
p978
I0
I1
tp979
Rp980
(I3
S'|'
p981
NNNI36
I1
I0
tp982
bS'HKQuantityTypeIdentifierDistanceWalk'
p983
tp984
Rp985
g1
(g27
S'\x92\x12\x00\x00'
p986
tp987
Rp988
sssg1
(g2
(S'S36'
p989
I0
I1
tp990
Rp991
(I3
S'|'
p992
NNNI36
I1
I0
tp993
bS'014de7aa-85f7-44c7-9f40-e19538140541'
p994
tp995
Rp996
(dp997
g12
(S'\x07\xe1\x02\x11'
p998
tp999
Rp1000
(dp1001
g1
(g2
(S'S36'
p1002
I0
I1
tp1003
Rp1004
(I3
S'|'
p1005
NNNI36
I1
I0
tp1006
bS'HKQuantityTypeIdentifierDistanceWalk'
p1007
tp1008
Rp1009
g1
(g27
S'\xb4\x10\x00\x00'
p1010
tp1011
Rp1012
sg1
(g2
(S'S33'
p1013
I0
I1
tp1014
Rp1015
(I3
S'|'
p1016
NNNI33
I1
I0
tp1017
bS'HKQuantityTypeIdentifierStepCount'
p1018
tp1019
Rp1020
g1
(g27
S'\x17\x18\x00\x00'
p1021
tp1022
Rp1023
sg1
(g2
(S'S36'
p1024
I0
I1
tp1025
Rp1026
(I3
S'|'
p1027
NNNI36
I1
I0
tp1028
bS'HKQuantityTypeIdentifierFlightsClimb'
p1029
tp1030
Rp1031
g1
(g27
S'\x07\x00\x00\x00'
p1032
tp1033
Rp1034
ssg12
(S'\x07\xe1\x02\x12'
p1035
tp1036
Rp1037
(dp1038
g1
(g2
(S'S32'
p1039
I0
I1
tp1040
Rp1041
(I3
S'|'
p1042
NNNI32
I1
I0
tp1043
bS'HKQuantityTypeIdentifierBodyMass'
p1044
tp1045
Rp1046
g1
(g27
S'\xd8\x02\x00\x00'
p1047
tp1048
Rp1049
sg1
(g2
(S'S36'
p1050
I0
I1
tp1051
Rp1052
(I3
S'|'
p1053
NNNI36
I1
I0
tp1054
bS'HKQuantityTypeIdentifierDistanceWalk'
p1055
tp1056
Rp1057
g1
(g27
S'\xbd\x13\x00\x00'
p1058
tp1059
Rp1060
sg1
(g2
(S'S36'
p1061
I0
I1
tp1062
Rp1063
(I3
S'|'
p1064
NNNI36
I1
I0
tp1065
bS'HKQuantityTypeIdentifierFlightsClimb'
p1066
tp1067
Rp1068
g1
(g27
S'\x06\x00\x00\x00'
p1069
tp1070
Rp1071
sg1
(g2
(S'S33'
p1072
I0
I1
tp1073
Rp1074
(I3
S'|'
p1075
NNNI33
I1
I0
tp1076
bS'HKQuantityTypeIdentifierStepCount'
p1077
tp1078
Rp1079
g1
(g27
S'\x8a\x1c\x00\x00'
p1080
tp1081
Rp1082
sssg1
(g2
(S'S36'
p1083
I0
I1
tp1084
Rp1085
(I3
S'|'
p1086
NNNI36
I1
I0
tp1087
bS'018f8c65-0d76-4911-94fd-d06c4265773f'
p1088
tp1089
Rp1090
(dp1091
g12
(S'\x07\xe0\x0c\x05'
p1092
tp1093
Rp1094
(dp1095
g1
(g2
(S'S36'
p1096
I0
I1
tp1097
Rp1098
(I3
S'|'
p1099
NNNI36
I1
I0
tp1100
bS'HKQuantityTypeIdentifierFlightsClimb'
p1101
tp1102
Rp1103
g1
(g27
S'\x01\x00\x00\x00'
p1104
tp1105
Rp1106
sg1
(g2
(S'S36'
p1107
I0
I1
tp1108
Rp1109
(I3
S'|'
p1110
NNNI36
I1
I0
tp1111
bS'HKQuantityTypeIdentifierDistanceWalk'
p1112
tp1113
Rp1114
g1
(g27
S'x\x0f\x00\x00'
p1115
tp1116
Rp1117
sg1
(g2
(S'S33'
p1118
I0
I1
tp1119
Rp1120
(I3
S'|'
p1121
NNNI33
I1
I0
tp1122
bS'HKQuantityTypeIdentifierHeartRate'
p1123
tp1124
Rp1125
g1
(g27
S';\x00\x00\x00'
p1126
tp1127
Rp1128
sg1
(g2
(S'S33'
p1129
I0
I1
tp1130
Rp1131
(I3
S'|'
p1132
NNNI33
I1
I0
tp1133
bS'HKQuantityTypeIdentifierStepCount'
p1134
tp1135
Rp1136
g1
(g27
S'\x01\x16\x00\x00'
p1137
tp1138
Rp1139
sg1
(g2
(S'S36'
p1140
I0
I1
tp1141
Rp1142
(I3
S'|'
p1143
NNNI36
I1
I0
tp1144
bS'HKQuantityTypeIdentifierActiveEnergy'
p1145
tp1146
Rp1147
g1
(g27
S'\xca&\x02\x00'
p1148
tp1149
Rp1150
sss.